target datalayout = "e-m:e-p270:32:32-p271:32:32-p272:64:64-i64:64-i128:128-f80:128-n8:16:32:64-S128"
target triple = "x86_64-pc-linux-gnu"

%struct.magic_set = type { [2 x ptr], %struct.cont, %struct.out, i32, i32, i32, i32, i32, ptr, i64, i32, %struct.anon, %union.VALUETYPE, i16, i16, i16, i16, i16, i16, i64, i64, i64 }
%struct.cont = type { i64, ptr }
%struct.out = type { ptr, i64, ptr }
%struct.anon = type { ptr, i64, i64, i64 }
%union.VALUETYPE = type { [2 x i64], [112 x i8] }

@stderr = external global ptr, align 8
@.str.20 = private unnamed_addr constant [13 x i8] c"id3 offs=%u\0A\00", align 1

; Function Attrs: nounwind uwtable
define internal i32 @cvt_id3(ptr noundef %0, i32 noundef %1) #0 {
  %3 = alloca ptr, align 8
  %4 = alloca i32, align 4
  store ptr %0, ptr %3, align 8
  store i32 %1, ptr %4, align 4
  %5 = load i32, ptr %4, align 4
  %6 = lshr i32 %5, 0
  %7 = and i32 %6, 127
  %8 = shl i32 %7, 0
  %9 = load i32, ptr %4, align 4
  %10 = lshr i32 %9, 8
  %11 = and i32 %10, 127
  %12 = shl i32 %11, 7
  %13 = or i32 %8, %12
  %14 = load i32, ptr %4, align 4
  %15 = lshr i32 %14, 16
  %16 = and i32 %15, 127
  %17 = shl i32 %16, 14
  %18 = or i32 %13, %17
  %19 = load i32, ptr %4, align 4
  %20 = lshr i32 %19, 24
  %21 = and i32 %20, 127
  %22 = shl i32 %21, 21
  %23 = or i32 %18, %22
  store i32 %23, ptr %4, align 4
  %24 = load ptr, ptr %3, align 8
  %25 = getelementptr inbounds %struct.magic_set, ptr %24, i32 0, i32 6
  %26 = load i32, ptr %25, align 4
  %27 = and i32 %26, 1
  %28 = icmp ne i32 %27, 0
  br i1 %28, label %29, label %33

29:                                               ; preds = %2
  %30 = load ptr, ptr @stderr, align 8
  %31 = load i32, ptr %4, align 4
  %32 = call i32 (ptr, ptr, ...) @fprintf(ptr noundef %30, ptr noundef @.str.20, i32 noundef %31) #10
  br label %33

33:                                               ; preds = %29, %2
  %34 = load i32, ptr %4, align 4
  ret i32 %34
}