; Function Attrs: nofree nounwind uwtable
define internal fastcc i32 @cvt_id3(i32 %.68.val, i32 noundef %0) unnamed_addr #5 {
  %2 = and i32 %0, 127
  %3 = lshr i32 %0, 1
  %4 = and i32 %3, 16256
  %5 = or disjoint i32 %4, %2
  %6 = lshr i32 %0, 2
  %7 = and i32 %6, 2080768
  %8 = or disjoint i32 %5, %7
  %9 = lshr i32 %0, 3
  %10 = and i32 %9, 266338304
  %11 = or disjoint i32 %8, %10
  %12 = and i32 %.68.val, 1
  %.not = icmp eq i32 %12, 0
  br i1 %.not, label %16, label %13

13:                                               ; preds = %1
  %14 = load ptr, ptr @stderr, align 8
  %15 = tail call i32 (ptr, ptr, ...) @fprintf(ptr noundef %14, ptr noundef nonnull @.str.20, i32 noundef %11) #22
  br label %16

16:                                               ; preds = %13, %1
  ret i32 %11
}